target datalayout = "e-m:e-p270:32:32-p271:32:32-p272:64:64-i64:64-i128:128-f80:128-n8:16:32:64-S128"
target triple = "x86_64-unknown-linux-gnu"

%struct.QTailQLink = type { ptr, ptr }
%struct.USBPacket = type { i32, i64, ptr, i32, %struct.QEMUIOVector, i64, i8, i8, i32, i32, i32, ptr, %union.anon.10, %union.anon.11 }
%struct.QEMUIOVector = type { ptr, i32, %union.anon.7 }
%union.anon.7 = type { %struct.anon.8 }
%struct.anon.8 = type { i32, %struct.iovec }
%struct.iovec = type { ptr, i64 }
%union.anon.10 = type { %struct.QTailQLink }
%union.anon.11 = type { %struct.QTailQLink }
%struct.QEMUSGList = type { ptr, i32, i32, i64, ptr, ptr }
%struct.USBEndpoint = type { i8, i8, i8, i8, i32, i32, i8, i8, ptr, %union.anon.12 }
%union.anon.12 = type { %struct.QTailQLink }
%struct.EHCIQueue = type { ptr, %union.anon.16, i32, i64, i32, i32, %struct.EHCIqh, i32, i32, i32, ptr, %union.anon.17 }
%union.anon.16 = type { %struct.QTailQLink }
%struct.EHCIqh = type { i32, i32, i32, i32, i32, i32, i32, [5 x i32] }
%union.anon.17 = type { %struct.QTailQLink }
%struct.timeval = type { i64, i64 }
%struct.EHCIPacket = type { ptr, %union.anon.18, %struct.EHCIqtd, i32, %struct.USBPacket, %struct.QEMUSGList, i32, i32 }
%union.anon.18 = type { %struct.QTailQLink }
%struct.EHCIqtd = type { i32, i32, i32, [5 x i32] }

@.str.24 = private unnamed_addr constant [26 x i8] c"../qemu/hw/usb/hcd-ehci.c\00", align 1
@trace_events_enabled_count = external global i32, align 4
@message_with_timestamp = external global i8, align 1
@qemu_loglevel = external global i32, align 4
@stderr = external global ptr, align 8
@_TRACE_USB_EHCI_GUEST_BUG_DSTATE = external global i16, align 2
@.str.88 = private unnamed_addr constant [36 x i8] c"%d@%zu.%06zu:usb_ehci_guest_bug %s\0A\00", align 1
@.str.89 = private unnamed_addr constant [23 x i8] c"usb_ehci_guest_bug %s\0A\00", align 1
@.str.128 = private unnamed_addr constant [34 x i8] c"guest queued token with wrong pid\00", align 1
@.str.129 = private unnamed_addr constant [6 x i8] c"queue\00", align 1
@.str.130 = private unnamed_addr constant [34 x i8] c"p->packet.status == USB_RET_ASYNC\00", align 1
@__PRETTY_FUNCTION__.ehci_fill_queue = private unnamed_addr constant [34 x i8] c"int ehci_fill_queue(EHCIPacket *)\00", align 1
@.str.131 = private unnamed_addr constant [11 x i8] c"bad token\0A\00", align 1

; Function Attrs: nounwind sspstrong uwtable
define internal zeroext i1 @qemu_loglevel_mask(i32 noundef %mask) #0 {
entry:
  %mask.addr = alloca i32, align 4
  store i32 %mask, ptr %mask.addr, align 4
  %0 = load i32, ptr @qemu_loglevel, align 4
  %1 = load i32, ptr %mask.addr, align 4
  %and = and i32 %0, %1
  %cmp = icmp ne i32 %and, 0
  ret i1 %cmp
}

; Function Attrs: nounwind sspstrong uwtable
define internal void @_nocheck__trace_usb_ehci_guest_bug(ptr noundef %reason) #0 {
entry:
  %reason.addr = alloca ptr, align 8
  %_now = alloca %struct.timeval, align 8
  store ptr %reason, ptr %reason.addr, align 8
  %0 = load i32, ptr @trace_events_enabled_count, align 4
  %tobool = icmp ne i32 %0, 0
  %lnot = xor i1 %tobool, true
  %lnot1 = xor i1 %lnot, true
  %lnot.ext = zext i1 %lnot1 to i32
  %conv = sext i32 %lnot.ext to i64
  %tobool2 = icmp ne i64 %conv, 0
  br i1 %tobool2, label %land.lhs.true, label %if.end11

land.lhs.true:                                    ; preds = %entry
  %1 = load i16, ptr @_TRACE_USB_EHCI_GUEST_BUG_DSTATE, align 2
  %conv3 = zext i16 %1 to i32
  %tobool4 = icmp ne i32 %conv3, 0
  br i1 %tobool4, label %land.lhs.true5, label %if.end11

land.lhs.true5:                                   ; preds = %land.lhs.true
  %call = call zeroext i1 @qemu_loglevel_mask(i32 noundef 32768)
  br i1 %call, label %if.then, label %if.end11

if.then:                                          ; preds = %land.lhs.true5
  %2 = load i8, ptr @message_with_timestamp, align 1
  %tobool7 = trunc i8 %2 to i1
  br i1 %tobool7, label %if.then8, label %if.else

if.then8:                                         ; preds = %if.then
  %call9 = call i32 @gettimeofday(ptr noundef %_now, ptr noundef null) #10
  %call10 = call i32 @qemu_get_thread_id()
  %tv_sec = getelementptr inbounds %struct.timeval, ptr %_now, i32 0, i32 0
  %3 = load i64, ptr %tv_sec, align 8
  %tv_usec = getelementptr inbounds %struct.timeval, ptr %_now, i32 0, i32 1
  %4 = load i64, ptr %tv_usec, align 8
  %5 = load ptr, ptr %reason.addr, align 8
  call void (ptr, ...) @qemu_log(ptr noundef @.str.88, i32 noundef %call10, i64 noundef %3, i64 noundef %4, ptr noundef %5)
  br label %if.end

if.else:                                          ; preds = %if.then
  %6 = load ptr, ptr %reason.addr, align 8
  call void (ptr, ...) @qemu_log(ptr noundef @.str.89, ptr noundef %6)
  br label %if.end

if.end:                                           ; preds = %if.else, %if.then8
  br label %if.end11

if.end11:                                         ; preds = %if.end, %land.lhs.true5, %land.lhs.true, %entry
  ret void
}

; Function Attrs: nounwind sspstrong uwtable
define internal void @trace_usb_ehci_guest_bug(ptr noundef %reason) #0 {
entry:
  %reason.addr = alloca ptr, align 8
  store ptr %reason, ptr %reason.addr, align 8
  %0 = load ptr, ptr %reason.addr, align 8
  call void @_nocheck__trace_usb_ehci_guest_bug(ptr noundef %0)
  ret void
}

; Function Attrs: nounwind sspstrong uwtable
define internal i32 @ehci_get_pid(ptr noundef %qtd) #0 {
entry:
  %retval = alloca i32, align 4
  %qtd.addr = alloca ptr, align 8
  store ptr %qtd, ptr %qtd.addr, align 8
  %0 = load ptr, ptr %qtd.addr, align 8
  %token = getelementptr inbounds %struct.EHCIqtd, ptr %0, i32 0, i32 2
  %1 = load i32, ptr %token, align 4
  %and = and i32 %1, 768
  %shr = lshr i32 %and, 8
  switch i32 %shr, label %sw.default [
    i32 0, label %sw.bb
    i32 1, label %sw.bb1
    i32 2, label %sw.bb2
  ]

sw.bb:                                            ; preds = %entry
  store i32 225, ptr %retval, align 4
  br label %return

sw.bb1:                                           ; preds = %entry
  store i32 105, ptr %retval, align 4
  br label %return

sw.bb2:                                           ; preds = %entry
  store i32 45, ptr %retval, align 4
  br label %return

sw.default:                                       ; preds = %entry
  %2 = load ptr, ptr @stderr, align 8
  %call = call i32 (ptr, ptr, ...) @fprintf(ptr noundef %2, ptr noundef @.str.131)
  store i32 0, ptr %retval, align 4
  br label %return

return:                                           ; preds = %sw.default, %sw.bb2, %sw.bb1, %sw.bb
  %3 = load i32, ptr %retval, align 4
  ret i32 %3
}

; Function Attrs: nounwind sspstrong uwtable
define internal void @ehci_trace_guest_bug(ptr noundef %s, ptr noundef %message) #0 {
entry:
  %s.addr = alloca ptr, align 8
  %message.addr = alloca ptr, align 8
  store ptr %s, ptr %s.addr, align 8
  store ptr %message, ptr %message.addr, align 8
  %0 = load ptr, ptr %message.addr, align 8
  call void @trace_usb_ehci_guest_bug(ptr noundef %0)
  ret void
}

; Function Attrs: nounwind sspstrong uwtable
define internal zeroext i1 @ehci_verify_pid(ptr noundef %q, ptr noundef %qtd) #0 {
entry:
  %retval = alloca i1, align 1
  %q.addr = alloca ptr, align 8
  %qtd.addr = alloca ptr, align 8
  %ep = alloca i32, align 4
  %pid = alloca i32, align 4
  store ptr %q, ptr %q.addr, align 8
  store ptr %qtd, ptr %qtd.addr, align 8
  %0 = load ptr, ptr %q.addr, align 8
  %qh = getelementptr inbounds %struct.EHCIQueue, ptr %0, i32 0, i32 6
  %epchar = getelementptr inbounds %struct.EHCIqh, ptr %qh, i32 0, i32 1
  %1 = load i32, ptr %epchar, align 4
  %and = and i32 %1, 3840
  %shr = lshr i32 %and, 8
  store i32 %shr, ptr %ep, align 4
  %2 = load ptr, ptr %qtd.addr, align 8
  %call = call i32 @ehci_get_pid(ptr noundef %2)
  store i32 %call, ptr %pid, align 4
  %3 = load ptr, ptr %q.addr, align 8
  %last_pid = getelementptr inbounds %struct.EHCIQueue, ptr %3, i32 0, i32 9
  %4 = load i32, ptr %last_pid, align 8
  %tobool = icmp ne i32 %4, 0
  br i1 %tobool, label %land.lhs.true, label %if.else

land.lhs.true:                                    ; preds = %entry
  %5 = load i32, ptr %ep, align 4
  %cmp = icmp ne i32 %5, 0
  br i1 %cmp, label %land.lhs.true1, label %if.else

land.lhs.true1:                                   ; preds = %land.lhs.true
  %6 = load i32, ptr %pid, align 4
  %7 = load ptr, ptr %q.addr, align 8
  %last_pid2 = getelementptr inbounds %struct.EHCIQueue, ptr %7, i32 0, i32 9
  %8 = load i32, ptr %last_pid2, align 8
  %cmp3 = icmp ne i32 %6, %8
  br i1 %cmp3, label %if.then, label %if.else

if.then:                                          ; preds = %land.lhs.true1
  store i1 false, ptr %retval, align 1
  br label %return

if.else:                                          ; preds = %land.lhs.true1, %land.lhs.true, %entry
  store i1 true, ptr %retval, align 1
  br label %return

return:                                           ; preds = %if.else, %if.then
  %9 = load i1, ptr %retval, align 1
  ret i1 %9
}

; Function Attrs: nounwind sspstrong uwtable
define internal i32 @ehci_fill_queue(ptr noundef %p) #0 {
entry:
  %retval = alloca i32, align 4
  %p.addr = alloca ptr, align 8
  %ep = alloca ptr, align 8
  %q = alloca ptr, align 8
  %qtd = alloca %struct.EHCIqtd, align 4
  %qtdaddr = alloca i32, align 4
  store ptr %p, ptr %p.addr, align 8
  %0 = load ptr, ptr %p.addr, align 8
  %packet = getelementptr inbounds %struct.EHCIPacket, ptr %0, i32 0, i32 4
  %ep1 = getelementptr inbounds %struct.USBPacket, ptr %packet, i32 0, i32 2
  %1 = load ptr, ptr %ep1, align 8
  store ptr %1, ptr %ep, align 8
  %2 = load ptr, ptr %p.addr, align 8
  %queue = getelementptr inbounds %struct.EHCIPacket, ptr %2, i32 0, i32 0
  %3 = load ptr, ptr %queue, align 8
  store ptr %3, ptr %q, align 8
  %4 = load ptr, ptr %p.addr, align 8
  %qtd2 = getelementptr inbounds %struct.EHCIPacket, ptr %4, i32 0, i32 2
  call void @llvm.memcpy.p0.p0.i64(ptr align 4 %qtd, ptr align 8 %qtd2, i64 32, i1 false)
  br label %for.cond

for.cond:                                         ; preds = %if.end35, %entry
  %next = getelementptr inbounds %struct.EHCIqtd, ptr %qtd, i32 0, i32 0
  %5 = load i32, ptr %next, align 4
  %and = and i32 %5, 1
  %cmp = icmp ne i32 %and, 0
  br i1 %cmp, label %if.then, label %if.end

if.then:                                          ; preds = %for.cond
  br label %for.end36

if.end:                                           ; preds = %for.cond
  %next3 = getelementptr inbounds %struct.EHCIqtd, ptr %qtd, i32 0, i32 0
  %6 = load i32, ptr %next3, align 4
  store i32 %6, ptr %qtdaddr, align 4
  %7 = load ptr, ptr %q, align 8
  %packets = getelementptr inbounds %struct.EHCIQueue, ptr %7, i32 0, i32 11
  %8 = load ptr, ptr %packets, align 8
  store ptr %8, ptr %p.addr, align 8
  br label %for.cond4

for.cond4:                                        ; preds = %for.inc, %if.end
  %9 = load ptr, ptr %p.addr, align 8
  %tobool = icmp ne ptr %9, null
  br i1 %tobool, label %for.body, label %for.end

for.body:                                         ; preds = %for.cond4
  %10 = load ptr, ptr %p.addr, align 8
  %qtdaddr5 = getelementptr inbounds %struct.EHCIPacket, ptr %10, i32 0, i32 3
  %11 = load i32, ptr %qtdaddr5, align 8
  %12 = load i32, ptr %qtdaddr, align 4
  %cmp6 = icmp eq i32 %11, %12
  br i1 %cmp6, label %if.then7, label %if.end8

if.then7:                                         ; preds = %for.body
  br label %leave

if.end8:                                          ; preds = %for.body
  br label %for.inc

for.inc:                                          ; preds = %if.end8
  %13 = load ptr, ptr %p.addr, align 8
  %next9 = getelementptr inbounds %struct.EHCIPacket, ptr %13, i32 0, i32 1
  %14 = load ptr, ptr %next9, align 8
  store ptr %14, ptr %p.addr, align 8
  br label %for.cond4, !llvm.loop !27

for.end:                                          ; preds = %for.cond4
  %15 = load ptr, ptr %q, align 8
  %ehci = getelementptr inbounds %struct.EHCIQueue, ptr %15, i32 0, i32 0
  %16 = load ptr, ptr %ehci, align 8
  %17 = load i32, ptr %qtdaddr, align 4
  %and10 = and i32 %17, -32
  %call = call i32 @get_dwords(ptr noundef %16, i32 noundef %and10, ptr noundef %qtd, i32 noundef 8)
  %cmp11 = icmp slt i32 %call, 0
  br i1 %cmp11, label %if.then12, label %if.end13

if.then12:                                        ; preds = %for.end
  store i32 -1, ptr %retval, align 4
  br label %return

if.end13:                                         ; preds = %for.end
  %18 = load ptr, ptr %q, align 8
  %19 = load i32, ptr %qtdaddr, align 4
  %and14 = and i32 %19, -32
  %conv = zext i32 %and14 to i64
  call void @ehci_trace_qtd(ptr noundef %18, i64 noundef %conv, ptr noundef %qtd)
  %token = getelementptr inbounds %struct.EHCIqtd, ptr %qtd, i32 0, i32 2
  %20 = load i32, ptr %token, align 4
  %and15 = and i32 %20, 128
  %tobool16 = icmp ne i32 %and15, 0
  br i1 %tobool16, label %if.end18, label %if.then17

if.then17:                                        ; preds = %if.end13
  br label %for.end36

if.end18:                                         ; preds = %if.end13
  %21 = load ptr, ptr %q, align 8
  %call19 = call zeroext i1 @ehci_verify_pid(ptr noundef %21, ptr noundef %qtd)
  br i1 %call19, label %if.end22, label %if.then20

if.then20:                                        ; preds = %if.end18
  %22 = load ptr, ptr %q, align 8
  %ehci21 = getelementptr inbounds %struct.EHCIQueue, ptr %22, i32 0, i32 0
  %23 = load ptr, ptr %ehci21, align 8
  call void @ehci_trace_guest_bug(ptr noundef %23, ptr noundef @.str.128)
  br label %for.end36

if.end22:                                         ; preds = %if.end18
  %24 = load ptr, ptr %q, align 8
  %call23 = call ptr @ehci_alloc_packet(ptr noundef %24)
  store ptr %call23, ptr %p.addr, align 8
  %25 = load i32, ptr %qtdaddr, align 4
  %26 = load ptr, ptr %p.addr, align 8
  %qtdaddr24 = getelementptr inbounds %struct.EHCIPacket, ptr %26, i32 0, i32 3
  store i32 %25, ptr %qtdaddr24, align 8
  %27 = load ptr, ptr %p.addr, align 8
  %qtd25 = getelementptr inbounds %struct.EHCIPacket, ptr %27, i32 0, i32 2
  call void @llvm.memcpy.p0.p0.i64(ptr align 8 %qtd25, ptr align 4 %qtd, i64 32, i1 false)
  %28 = load ptr, ptr %p.addr, align 8
  %call26 = call i32 @ehci_execute(ptr noundef %28, ptr noundef @.str.129)
  %cmp27 = icmp eq i32 %call26, -1
  br i1 %cmp27, label %if.then29, label %if.end30

if.then29:                                        ; preds = %if.end22
  store i32 -1, ptr %retval, align 4
  br label %return

if.end30:                                         ; preds = %if.end22
  %29 = load ptr, ptr %p.addr, align 8
  %packet31 = getelementptr inbounds %struct.EHCIPacket, ptr %29, i32 0, i32 4
  %status = getelementptr inbounds %struct.USBPacket, ptr %packet31, i32 0, i32 8
  %30 = load i32, ptr %status, align 4
  %cmp32 = icmp eq i32 %30, -6
  br i1 %cmp32, label %if.then34, label %if.else

if.then34:                                        ; preds = %if.end30
  br label %if.end35

if.else:                                          ; preds = %if.end30
  call void @__assert_fail(ptr noundef @.str.130, ptr noundef @.str.24, i32 noundef 1917, ptr noundef @__PRETTY_FUNCTION__.ehci_fill_queue) #12
  unreachable

if.end35:                                         ; preds = %if.then34
  %31 = load ptr, ptr %p.addr, align 8
  %async = getelementptr inbounds %struct.EHCIPacket, ptr %31, i32 0, i32 7
  store i32 2, ptr %async, align 4
  br label %for.cond

for.end36:                                        ; preds = %if.then20, %if.then17, %if.then
  br label %leave

leave:                                            ; preds = %for.end36, %if.then7
  %32 = load ptr, ptr %ep, align 8
  %dev = getelementptr inbounds %struct.USBEndpoint, ptr %32, i32 0, i32 8
  %33 = load ptr, ptr %dev, align 8
  %34 = load ptr, ptr %ep, align 8
  call void @usb_device_flush_ep_queue(ptr noundef %33, ptr noundef %34)
  store i32 1, ptr %retval, align 4
  br label %return

return:                                           ; preds = %leave, %if.then29, %if.then12
  %35 = load i32, ptr %retval, align 4
  ret i32 %35
}