; Function Attrs: nounwind sspstrong uwtable
define internal fastcc range(i32 -1, 2) i32 @ehci_fill_queue(ptr noundef readonly captures(none) %p) unnamed_addr #0 {
entry:
  %_now.i.i.i = alloca %struct.timeval, align 8
  %qtd = alloca %struct.EHCIqtd, align 4
  %ep1 = getelementptr inbounds nuw i8, ptr %p, i64 80
  %0 = load ptr, ptr %ep1, align 8
  %1 = load ptr, ptr %p, align 8
  %qtd2 = getelementptr inbounds nuw i8, ptr %p, i64 24
  call void @llvm.memcpy.p0.p0.i64(ptr noundef nonnull align 4 dereferenceable(32) %qtd, ptr noundef nonnull align 8 dereferenceable(32) %qtd2, i64 32, i1 false)
  %2 = load i32, ptr %qtd, align 4
  %and24 = and i32 %2, 1
  %cmp.not25 = icmp eq i32 %and24, 0
  br i1 %cmp.not25, label %if.end.lr.ph, label %leave

if.end.lr.ph:                                     ; preds = %entry
  %packets = getelementptr inbounds nuw i8, ptr %1, i64 120
  %token = getelementptr inbounds nuw i8, ptr %qtd, i64 8
  %epchar.i = getelementptr inbounds nuw i8, ptr %1, i64 52
  %last_pid.i = getelementptr inbounds nuw i8, ptr %1, i64 104
  br label %if.end

if.end:                                           ; preds = %if.end.lr.ph, %if.end35
  %3 = phi i32 [ %2, %if.end.lr.ph ], [ %19, %if.end35 ]
  %p.addr.021 = load ptr, ptr %packets, align 8
  %tobool.not22 = icmp eq ptr %p.addr.021, null
  br i1 %tobool.not22, label %for.end, label %for.body

for.cond4:                                        ; preds = %for.body
  %next9 = getelementptr inbounds nuw i8, ptr %p.addr.023, i64 8
  %p.addr.0 = load ptr, ptr %next9, align 8
  %tobool.not = icmp eq ptr %p.addr.0, null
  br i1 %tobool.not, label %for.end, label %for.body, !llvm.loop !28

for.body:                                         ; preds = %if.end, %for.cond4
  %p.addr.023 = phi ptr [ %p.addr.0, %for.cond4 ], [ %p.addr.021, %if.end ]
  %qtdaddr5 = getelementptr inbounds nuw i8, ptr %p.addr.023, i64 56
  %4 = load i32, ptr %qtdaddr5, align 8
  %cmp6 = icmp eq i32 %4, %3
  br i1 %cmp6, label %leave, label %for.cond4

for.end:                                          ; preds = %for.cond4, %if.end
  %5 = load ptr, ptr %1, align 8
  %and10 = and i32 %3, -32
  %call = call fastcc i32 @get_dwords(ptr noundef %5, i32 noundef %and10, ptr noundef %qtd, i32 noundef 8)
  %cmp11 = icmp slt i32 %call, 0
  br i1 %cmp11, label %return, label %if.end13

if.end13:                                         ; preds = %for.end
  %conv = zext i32 %and10 to i64
  call fastcc void @ehci_trace_qtd(ptr noundef nonnull %1, i64 noundef %conv, ptr noundef nonnull %qtd)
  %6 = load i32, ptr %token, align 4
  %and15 = and i32 %6, 128
  %tobool16.not = icmp eq i32 %and15, 0
  br i1 %tobool16.not, label %leave, label %if.end18

if.end18:                                         ; preds = %if.end13
  %7 = load i32, ptr %epchar.i, align 4
  %and.i.i = lshr i32 %6, 8
  %shr.i.i = and i32 %and.i.i, 3
  switch i32 %shr.i.i, label %default.unreachable [
    i32 0, label %ehci_verify_pid.exit
    i32 1, label %sw.bb1.i.i
    i32 2, label %sw.bb2.i.i
    i32 3, label %sw.default.i.i
  ]

sw.bb1.i.i:                                       ; preds = %if.end18
  br label %ehci_verify_pid.exit

sw.bb2.i.i:                                       ; preds = %if.end18
  br label %ehci_verify_pid.exit

default.unreachable:                              ; preds = %if.end18
  unreachable

sw.default.i.i:                                   ; preds = %if.end18
  %8 = load ptr, ptr @stderr, align 8
  %9 = call i64 @fwrite(ptr nonnull @.str.131, i64 10, i64 1, ptr %8) #19
  br label %ehci_verify_pid.exit

ehci_verify_pid.exit:                             ; preds = %if.end18, %sw.bb1.i.i, %sw.bb2.i.i, %sw.default.i.i
  %retval.0.i.i = phi i32 [ 0, %sw.default.i.i ], [ 45, %sw.bb2.i.i ], [ 105, %sw.bb1.i.i ], [ 225, %if.end18 ]
  %10 = load i32, ptr %last_pid.i, align 8
  %tobool.i = icmp eq i32 %10, 0
  %11 = and i32 %7, 3840
  %cmp.i = icmp eq i32 %11, 0
  %or.cond.not1.i = select i1 %tobool.i, i1 true, i1 %cmp.i
  %cmp3.not.i = icmp eq i32 %retval.0.i.i, %10
  %or.cond3.i = or i1 %cmp3.not.i, %or.cond.not1.i
  br i1 %or.cond3.i, label %if.end22, label %if.then20

if.then20:                                        ; preds = %ehci_verify_pid.exit
  call void @llvm.lifetime.start.p0(i64 16, ptr nonnull %_now.i.i.i)
  %12 = load i32, ptr @trace_events_enabled_count, align 4
  %tobool.i.i.i = icmp ne i32 %12, 0
  %13 = load i16, ptr @_TRACE_USB_EHCI_GUEST_BUG_DSTATE, align 2
  %tobool4.i.i.i = icmp ne i16 %13, 0
  %or.cond.i.i.i = select i1 %tobool.i.i.i, i1 %tobool4.i.i.i, i1 false
  br i1 %or.cond.i.i.i, label %land.lhs.true5.i.i.i, label %ehci_trace_guest_bug.exit

land.lhs.true5.i.i.i:                             ; preds = %if.then20
  %14 = load i32, ptr @qemu_loglevel, align 4
  %and.i.i.i.i = and i32 %14, 32768
  %cmp.i.not.i.i.i = icmp eq i32 %and.i.i.i.i, 0
  br i1 %cmp.i.not.i.i.i, label %ehci_trace_guest_bug.exit, label %if.then.i.i.i

if.then.i.i.i:                                    ; preds = %land.lhs.true5.i.i.i
  %15 = load i8, ptr @message_with_timestamp, align 1
  %tobool7.i.i.i = trunc i8 %15 to i1
  br i1 %tobool7.i.i.i, label %if.then8.i.i.i, label %if.else.i.i.i

if.then8.i.i.i:                                   ; preds = %if.then.i.i.i
  %call9.i.i.i = call i32 @gettimeofday(ptr noundef nonnull %_now.i.i.i, ptr noundef null) #17
  %call10.i.i.i = call i32 @qemu_get_thread_id() #17
  %16 = load i64, ptr %_now.i.i.i, align 8
  %tv_usec.i.i.i = getelementptr inbounds nuw i8, ptr %_now.i.i.i, i64 8
  %17 = load i64, ptr %tv_usec.i.i.i, align 8
  call void (ptr, ...) @qemu_log(ptr noundef nonnull @.str.88, i32 noundef %call10.i.i.i, i64 noundef %16, i64 noundef %17, ptr noundef nonnull @.str.128) #17
  br label %ehci_trace_guest_bug.exit

if.else.i.i.i:                                    ; preds = %if.then.i.i.i
  call void (ptr, ...) @qemu_log(ptr noundef nonnull @.str.89, ptr noundef nonnull @.str.128) #17
  br label %ehci_trace_guest_bug.exit

ehci_trace_guest_bug.exit:                        ; preds = %if.then20, %land.lhs.true5.i.i.i, %if.then8.i.i.i, %if.else.i.i.i
  call void @llvm.lifetime.end.p0(i64 16, ptr nonnull %_now.i.i.i)
  br label %leave

if.end22:                                         ; preds = %ehci_verify_pid.exit
  %call23 = call fastcc ptr @ehci_alloc_packet(ptr noundef nonnull %1)
  %qtdaddr24 = getelementptr inbounds nuw i8, ptr %call23, i64 56
  store i32 %3, ptr %qtdaddr24, align 8
  %qtd25 = getelementptr inbounds nuw i8, ptr %call23, i64 24
  call void @llvm.memcpy.p0.p0.i64(ptr noundef nonnull align 8 dereferenceable(32) %qtd25, ptr noundef nonnull align 4 dereferenceable(32) %qtd, i64 32, i1 false)
  %call26 = call fastcc i32 @ehci_execute(ptr noundef %call23, ptr noundef nonnull @.str.129)
  %cmp27 = icmp eq i32 %call26, -1
  br i1 %cmp27, label %return, label %if.end30

if.end30:                                         ; preds = %if.end22
  %status = getelementptr inbounds nuw i8, ptr %call23, i64 148
  %18 = load i32, ptr %status, align 4
  %cmp32 = icmp eq i32 %18, -6
  br i1 %cmp32, label %if.end35, label %if.else

if.else:                                          ; preds = %if.end30
  call void @__assert_fail(ptr noundef nonnull @.str.130, ptr noundef nonnull @.str.24, i32 noundef 1917, ptr noundef nonnull @__PRETTY_FUNCTION__.ehci_fill_queue) #20
  unreachable

if.end35:                                         ; preds = %if.end30
  %async = getelementptr inbounds nuw i8, ptr %call23, i64 244
  store i32 2, ptr %async, align 4
  %19 = load i32, ptr %qtd, align 4
  %and = and i32 %19, 1
  %cmp.not = icmp eq i32 %and, 0
  br i1 %cmp.not, label %if.end, label %leave

leave:                                            ; preds = %if.end13, %if.end35, %for.body, %entry, %ehci_trace_guest_bug.exit
  %dev = getelementptr inbounds nuw i8, ptr %0, i64 16
  %20 = load ptr, ptr %dev, align 8
  call void @usb_device_flush_ep_queue(ptr noundef %20, ptr noundef %0) #17
  br label %return

return:                                           ; preds = %if.end22, %for.end, %leave
  %retval.0 = phi i32 [ 1, %leave ], [ -1, %for.end ], [ -1, %if.end22 ]
  ret i32 %retval.0
}